(lp1
F24.44
aF23.46
aF23.15
aF23.1
aF22.55
aF22.03
aF22.03
aF21.83
aF21.83
aF21.83
aF21.83
aF21.83
aF21.37
aF21.32
aF21.32
aF21.32
aF21.32
aF21.32
aF21.32
aF21.32
aF21.32
aF21.32
aF21.23
aF21.23
aF21.22
aF21.22
aF21.22
aF21.22
aF21.22
aF21.22
aF21.22
aF21.22
aF21.22
aF21.19
aF21.19
aF21.19
aF21.19
aF21.19
aF21.07
aF21.07
aF21.07
aF21.07
aF21.07
aF21.07
aF21.07
aF21.07
aF21.07
aF21.07
aF21.07
aF21.07
aF20.84
aF20.84
aF20.81
aF20.58
aF20.58
aF20.58
aF20.58
aF20.58
aF20.58
aF20.58
aF20.58
aF20.58
aF20.58
aF20.58
aF20.58
aF20.58
aF20.58
aF20.58
aF20.58
aF20.58
aF20.55
aF20.55
aF20.55
aF20.55
aF20.53
aF20.53
aF20.4
aF20.4
aF20.4
aF20.39
aF20.39
aF20.39
aF20.39
aF20.39
aF20.39
aF20.39
aF20.39
aF20.39
aF20.39
aF20.39
aF20.39
aF20.29
aF20.29
aF20.26
aF20.26
aF20.26
aF20.26
aF20.26
aF20.26
aF20.26
aF20.24
a.