(lp1
F23.68
aF23.16
aF23.57
aF24.23
aF23.98
aF23.89
aF23.13
aF23.79
aF23.97
aF23.86
aF23.68
aF23.64
aF22.96
aF22.42
aF23.66
aF23.64
aF23.29
aF24.12
aF24.05
aF24.25
aF24.15
aF24.73
aF23.86
aF23.23
aF22.63
aF23.24
aF23.77
aF23.71
aF23.72
aF23.76
aF23.64
aF23.01
aF23.74
aF23.98
aF24.28
aF23.38
aF23.04
aF24.74
aF25.23
aF24.43
aF24.73
aF24.6
aF23.88
aF23.99
aF23.51
aF24.16
aF23.83
aF23.41
aF23.29
aF22.63
aF23.6
aF22.92
aF25.22
aF24.03
aF23.34
aF24.32
aF24.04
aF23.85
aF24.12
aF23.68
aF22.65
aF24.28
aF24.57
aF23.76
aF25.27
aF24.3
aF25.03
aF24.28
aF24.62
aF24.24
aF24.05
aF23.91
aF24.85
aF24.76
aF23.6
aF24.5
aF23.73
aF24.86
aF23.93
aF24.28
aF23.85
aF23.93
aF23.72
aF23.34
aF23.11
aF23.49
aF23.13
aF24.49
aF23.22
aF23.05
aF23.58
aF23.35
aF25.08
aF25.02
aF26.03
aF24.4
aF24.86
aF24.14
aF24.36
aF23.89
aF24.37
aF24.06
aF23.94
aF23.63
aF23.96
aF24.23
aF24.29
aF23.93
aF23.69
aF23.36
aF23.55
aF23.48
aF23.16
aF22.38
aF23.48
aF22.92
aF22.91
aF23.86
aF23.56
aF23.94
aF23.91
aF23.6
aF23.06
aF22.89
aF22.96
aF23.3
aF23.22
aF23.22
aF23.6
aF23.14
aF23.85
aF23.63
aF23.25
aF23.86
aF23.27
aF23.77
aF23.27
aF22.89
aF23.52
aF24.02
aF23.65
aF23.52
aF22.52
aF23.87
aF23.89
aF23.2
aF23.26
aF24.43
aF22.75
aF21.99
aF22.26
aF23.97
aF23.53
aF23.7
aF23.23
aF22.94
aF23.31
aF23.01
aF23.29
aF22.84
aF23.88
aF23.73
aF24.03
aF23.78
aF23.74
aF23.67
aF24.17
aF23.84
aF23.3
aF23.08
aF23.77
aF23.0
aF22.51
aF22.87
aF23.62
aF23.24
aF23.3
aF23.87
aF23.31
aF22.98
aF23.25
aF22.73
aF22.61
aF22.78
aF22.24
aF22.69
aF23.19
aF24.76
aF24.34
aF23.98
aF22.93
aF23.04
aF23.89
aF23.66
aF23.39
aF24.05
aF24.08
aF24.38
aF24.0
aF24.28
aF22.89
aF23.3
aF22.97
aF23.76
aF23.6
aF24.06
aF23.54
aF23.5
aF23.38
aF23.26
aF23.03
aF23.87
aF24.01
aF24.12
aF23.25
aF23.27
aF23.11
aF23.52
aF24.35
aF24.58
aF24.43
aF23.77
aF23.11
aF23.31
aF22.82
aF22.94
aF23.4
aF22.9
aF23.26
aF23.93
aF24.53
aF23.25
aF23.71
aF23.32
aF23.42
aF23.56
aF23.45
aF23.7
aF24.39
aF23.43
aF23.79
aF23.6
aF23.08
aF23.57
aF24.41
aF23.51
aF22.56
aF22.76
aF23.04
aF23.15
aF23.16
a.