(lp1
F23.45
aF23.25
aF23.25
aF23.25
aF23.25
aF23.08
aF23.05
aF22.94
aF22.51
aF22.51
aF22.24
aF22.24
aF22.13
aF21.84
aF21.83
aF21.62
aF21.33
aF21.33
aF21.33
aF21.33
aF21.33
aF21.33
aF21.33
aF21.33
aF21.33
aF21.33
aF21.33
aF21.11
aF20.88
aF20.88
aF20.88
aF20.88
aF20.88
aF20.88
aF20.88
aF20.81
aF20.81
aF20.81
aF20.81
aF20.81
aF20.81
aF20.81
aF20.8
aF20.8
aF20.8
aF20.8
aF20.8
aF20.8
aF20.8
aF20.8
aF20.8
aF20.8
aF20.8
aF20.8
aF20.74
aF20.66
aF20.63
aF20.63
aF20.63
aF20.63
aF20.6
aF20.6
aF20.6
aF20.6
aF20.45
aF20.45
aF20.45
aF20.39
aF20.32
aF20.32
aF20.32
aF20.32
aF20.32
aF20.32
aF20.32
aF20.31
aF20.31
aF20.31
aF20.31
aF20.31
aF20.31
aF20.3
aF20.3
aF20.3
aF20.23
aF20.23
aF20.23
aF20.17
aF20.17
aF20.17
aF20.17
aF20.17
aF20.17
aF20.17
aF20.17
aF20.17
aF20.15
aF20.15
aF20.15
aF20.15
aF20.15
aF20.15
aF20.15
aF20.15
aF20.14
aF20.14
aF20.14
aF20.14
aF20.14
aF20.14
aF20.14
aF20.14
aF20.14
aF20.14
aF20.14
aF20.14
aF20.14
aF20.14
aF20.14
aF20.14
aF20.14
aF19.96
aF19.96
aF19.96
aF19.96
aF19.96
aF19.96
aF19.96
aF19.96
aF19.96
aF19.96
aF19.96
aF19.96
aF19.96
aF19.96
aF19.95
aF19.95
aF19.95
aF19.95
aF19.95
aF19.95
aF19.87
aF19.87
aF19.87
aF19.87
aF19.87
aF19.81
aF19.81
aF19.81
aF19.81
aF19.81
aF19.81
aF19.81
aF19.81
aF19.81
aF19.81
aF19.81
aF19.81
aF19.81
aF19.81
aF19.81
aF19.81
aF19.81
aF19.81
aF19.81
aF19.81
aF19.81
aF19.81
aF19.81
aF19.81
aF19.81
aF19.81
aF19.81
aF19.81
aF19.81
aF19.81
aF19.81
aF19.81
aF19.81
aF19.81
aF19.81
aF19.81
aF19.81
aF19.81
aF19.81
aF19.81
aF19.81
aF19.81
aF19.81
aF19.81
aF19.81
aF19.81
aF19.81
aF19.81
aF19.81
aF19.81
aF19.81
aF19.81
aF19.81
aF19.81
aF19.81
aF19.81
aF19.81
aF19.81
aF19.81
aF19.81
aF19.81
aF19.81
aF19.81
aF19.81
aF19.81
aF19.81
aF19.81
aF19.81
aF19.81
aF19.81
aF19.81
aF19.81
aF19.81
aF19.81
aF19.81
aF19.81
aF19.81
aF19.81
aF19.81
aF19.81
aF19.81
aF19.81
aF19.81
aF19.81
aF19.81
aF19.81
aF19.81
aF19.81
aF19.81
aF19.81
aF19.81
aF19.81
aF19.81
aF19.81
aF19.81
aF19.81
aF19.81
aF19.81
aF19.81
aF19.81
aF19.81
aF19.81
aF19.81
aF19.81
aF19.81
a.