(lp1
F22.8
aF22.79
aF22.58
aF22.4
aF21.9
aF21.9
aF21.9
aF21.83
aF21.83
aF21.83
aF21.83
aF21.78
aF21.78
aF21.78
aF21.58
aF21.58
aF21.58
aF21.53
aF21.29
aF21.09
aF21.09
aF21.03
aF21.03
aF21.03
aF21.03
aF20.84
aF20.84
aF20.84
aF20.84
aF20.84
aF20.84
aF20.84
aF20.84
aF20.84
aF20.84
aF20.84
aF20.67
aF20.67
aF20.67
aF20.67
aF20.67
aF20.67
aF20.67
aF20.63
aF20.63
aF20.63
aF20.63
aF20.63
aF20.63
aF20.63
aF20.63
aF20.63
aF20.58
aF20.58
aF20.58
aF20.58
aF20.58
aF20.58
aF20.58
aF20.58
aF20.58
aF20.56
aF20.56
aF20.56
aF20.56
aF20.48
aF20.48
aF20.31
aF20.2
aF20.17
aF20.17
aF20.15
aF20.15
aF20.15
aF20.15
aF20.15
aF20.15
aF20.15
aF20.15
aF20.15
aF20.15
aF20.15
aF20.15
aF19.95
aF19.95
aF19.95
aF19.95
aF19.95
aF19.94
aF19.94
aF19.94
aF19.94
aF19.94
aF19.94
aF19.94
aF19.94
aF19.94
aF19.94
aF19.94
aF19.94
aF19.94
aF19.94
aF19.94
aF19.93
aF19.93
aF19.93
aF19.93
aF19.93
aF19.93
aF19.93
aF19.93
aF19.93
aF19.93
aF19.93
aF19.93
aF19.93
aF19.93
aF19.93
aF19.93
aF19.93
aF19.93
aF19.93
aF19.93
aF19.93
aF19.93
aF19.93
aF19.93
aF19.93
aF19.93
aF19.93
aF19.93
aF19.93
aF19.93
aF19.93
aF19.89
aF19.89
aF19.89
aF19.89
aF19.89
aF19.89
aF19.89
aF19.89
aF19.89
aF19.89
aF19.89
aF19.89
aF19.89
aF19.89
aF19.89
aF19.89
aF19.89
aF19.89
aF19.89
aF19.89
aF19.89
aF19.89
aF19.89
aF19.89
aF19.89
aF19.89
aF19.89
aF19.89
aF19.89
aF19.89
aF19.89
aF19.89
aF19.89
aF19.89
aF19.89
aF19.89
aF19.89
aF19.89
aF19.89
aF19.89
aF19.89
aF19.89
aF19.89
aF19.89
aF19.89
aF19.89
aF19.89
aF19.89
aF19.89
aF19.89
aF19.89
aF19.89
aF19.89
aF19.89
aF19.89
aF19.89
aF19.89
aF19.89
aF19.89
aF19.89
aF19.89
aF19.89
aF19.89
aF19.84
aF19.84
aF19.84
aF19.84
aF19.84
aF19.84
aF19.84
aF19.84
aF19.84
aF19.84
aF19.84
aF19.84
aF19.84
aF19.84
aF19.84
aF19.84
aF19.84
aF19.84
aF19.84
aF19.84
aF19.84
aF19.84
aF19.84
aF19.84
aF19.84
aF19.84
aF19.84
aF19.84
aF19.84
aF19.84
aF19.84
aF19.84
aF19.84
aF19.84
aF19.84
aF19.84
aF19.84
aF19.84
aF19.84
aF19.84
aF19.84
aF19.84
aF19.84
aF19.84
aF19.84
aF19.84
aF19.84
aF19.84
aF19.84
aF19.84
aF19.84
aF19.84
aF19.84
aF19.84
a.