(lp1
F23.24
aF22.81
aF22.61
aF22.59
aF22.41
aF22.41
aF22.31
aF21.94
aF21.94
aF21.79
aF21.54
aF21.54
aF21.49
aF21.49
aF21.45
aF21.32
aF21.3
aF21.15
aF21.07
aF21.07
aF20.99
aF20.93
aF20.93
aF20.93
aF20.93
aF20.92
aF20.92
aF20.92
aF20.91
aF20.88
aF20.88
aF20.88
aF20.88
aF20.88
aF20.82
aF20.82
aF20.82
aF20.82
aF20.82
aF20.82
aF20.82
aF20.82
aF20.82
aF20.63
aF20.58
aF20.58
aF20.54
aF20.54
aF20.54
aF20.54
aF20.54
aF20.42
aF20.39
aF20.39
aF20.39
aF20.39
aF20.16
aF20.16
aF20.16
aF20.16
aF20.16
aF20.16
aF20.16
aF20.14
aF20.14
aF20.1
aF20.1
aF20.07
aF20.07
aF20.07
aF20.07
aF20.07
aF20.07
aF20.07
aF20.07
aF20.07
aF20.07
aF20.07
aF20.06
aF19.99
aF19.99
aF19.96
aF19.96
aF19.96
aF19.96
aF19.96
aF19.96
aF19.96
aF19.96
aF19.96
aF19.96
aF19.96
aF19.96
aF19.96
aF19.96
aF19.68
aF19.68
aF19.68
aF19.68
aF19.68
aF19.68
aF19.65
aF19.65
aF19.65
aF19.65
aF19.65
aF19.65
aF19.65
aF19.65
aF19.65
aF19.65
aF19.65
aF19.65
aF19.61
aF19.55
aF19.55
aF19.55
aF19.55
aF19.55
aF19.55
aF19.55
aF19.55
aF19.55
aF19.55
aF19.55
aF19.55
aF19.55
aF19.53
aF19.53
aF19.53
aF19.53
aF19.53
aF19.53
aF19.53
aF19.53
aF19.53
aF19.53
aF19.53
aF19.53
aF19.53
aF19.53
aF19.53
aF19.47
aF19.47
aF19.47
aF19.47
aF19.47
aF19.47
aF19.47
aF19.47
aF19.47
aF19.47
aF19.47
aF19.47
aF19.47
aF19.47
aF19.47
aF19.47
aF19.47
aF19.47
aF19.47
aF19.47
aF19.47
aF19.47
aF19.47
aF19.47
aF19.47
aF19.47
aF19.47
aF19.47
aF19.47
aF19.47
aF19.47
aF19.47
aF19.47
aF19.47
aF19.47
aF19.47
aF19.47
aF19.47
aF19.47
aF19.47
aF19.47
aF19.47
aF19.47
aF19.47
aF19.47
aF19.47
aF19.47
aF19.47
aF19.47
aF19.47
aF19.47
aF19.47
aF19.47
aF19.47
aF19.47
aF19.47
aF19.47
aF19.47
aF19.47
aF19.47
aF19.47
aF19.47
aF19.47
aF19.47
aF19.47
aF19.47
aF19.47
aF19.47
aF19.47
aF19.47
aF19.47
aF19.47
aF19.47
aF19.47
aF19.47
aF19.47
aF19.47
aF19.47
aF19.47
aF19.47
aF19.47
aF19.47
aF19.47
aF19.47
aF19.47
aF19.47
aF19.47
aF19.47
aF19.47
aF19.47
aF19.47
aF19.47
aF19.47
aF19.47
aF19.47
aF19.47
aF19.47
aF19.47
aF19.47
aF19.47
aF19.47
aF19.47
aF19.47
aF19.47
aF19.47
aF19.47
aF19.47
aF19.47
aF19.47
aF19.47
aF19.47
aF19.47
aF19.47
aF19.47
aF19.47
aF19.47
aF19.47
aF19.47
aF19.47
aF19.47
aF19.47
aF19.47
aF19.47
aF19.47
aF19.47
aF19.47
aF19.47
aF19.47
aF19.47
aF19.47
aF19.47
aF19.47
aF19.47
aF19.47
aF19.47
aF19.47
aF19.47
aF19.47
aF19.47
aF19.47
aF19.47
aF19.47
aF19.47
aF19.47
aF19.47
aF19.47
aF19.47
aF19.47
aF19.47
aF19.47
aF19.47
aF19.47
aF19.47
aF19.47
aF19.47
aF19.47
aF19.47
aF19.47
aF19.47
aF19.47
aF19.47
aF19.47
aF19.47
aF19.47
aF19.47
aF19.47
aF19.47
aF19.47
aF19.47
aF19.47
aF19.47
aF19.47
aF19.47
aF19.47
aF19.47
aF19.47
aF19.47
aF19.47
aF19.47
aF19.47
aF19.47
aF19.47
aF19.47
aF19.47
aF19.47
aF19.47
aF19.47
aF19.47
aF19.47
aF19.47
aF19.47
aF19.47
aF19.47
aF19.47
aF19.47
aF19.47
aF19.47
aF19.47
aF19.47
aF19.47
aF19.47
aF19.47
aF19.47
aF19.47
aF19.47
aF19.47
aF19.47
aF19.47
aF19.47
aF19.47
aF19.47
aF19.47
aF19.47
aF19.47
aF19.47
aF19.47
aF19.47
aF19.47
aF19.47
aF19.45
aF19.45
aF19.45
aF19.45
aF19.45
aF19.45
aF19.45
aF19.45
aF19.45
aF19.45
aF19.45
aF19.45
aF19.45
aF19.45
aF19.45
aF19.45
aF19.45
aF19.45
aF19.45
aF19.45
aF19.45
aF19.45
aF19.45
aF19.45
aF19.45
aF19.45
aF19.45
aF19.45
aF19.45
aF19.45
aF19.45
aF19.45
aF19.45
aF19.45
aF19.45
aF19.45
aF19.45
aF19.45
aF19.45
aF19.45
aF19.45
aF19.45
aF19.45
aF19.45
aF19.45
aF19.45
aF19.45
aF19.45
aF19.38
aF19.38
aF19.38
aF19.38
aF19.38
aF19.38
aF19.38
aF19.38
aF19.38
aF19.38
aF19.38
aF19.38
aF19.38
aF19.38
aF19.38
aF19.38
aF19.38
aF19.38
aF19.38
aF19.38
aF19.38
aF19.38
aF19.38
aF19.38
aF19.38
aF19.38
aF19.38
aF19.38
aF19.38
aF19.38
aF19.38
aF19.38
aF19.38
aF19.38
aF19.38
aF19.38
aF19.38
aF19.38
aF19.38
aF19.38
aF19.38
aF19.38
aF19.37
aF19.37
aF19.37
aF19.37
aF19.37
aF19.37
aF19.37
aF19.37
aF19.37
aF19.37
aF19.37
aF19.37
aF19.37
aF19.37
aF19.37
aF19.37
aF19.37
aF19.37
aF19.37
aF19.37
aF19.37
aF19.37
aF19.37
aF19.37
aF19.37
aF19.37
aF19.37
aF19.37
aF19.37
aF19.37
aF19.37
aF19.37
aF19.37
aF19.37
aF19.37
aF19.37
aF19.37
aF19.37
aF19.37
aF19.37
aF19.37
aF19.37
aF19.37
aF19.37
aF19.37
aF19.37
aF19.37
aF19.37
aF19.37
aF19.37
aF19.37
aF19.37
aF19.37
aF19.37
aF19.37
aF19.37
aF19.37
aF19.37
aF19.37
aF19.37
aF19.37
aF19.37
aF19.37
aF19.37
aF19.37
aF19.37
aF19.37
aF19.37
aF19.37
aF19.37
aF19.37
aF19.37
aF19.37
aF19.37
aF19.34
aF19.34
aF19.34
aF19.34
aF19.34
aF19.34
aF19.34
aF19.34
aF19.34
aF19.34
aF19.18
aF19.18
aF19.18
aF19.18
aF19.18
aF19.18
aF19.18
aF19.18
aF19.18
aF19.18
aF19.18
aF19.18
aF19.18
aF19.18
aF19.18
aF19.18
aF19.18
aF19.18
aF19.18
aF19.18
aF19.18
aF19.18
aF19.18
aF19.18
aF19.18
aF19.18
aF19.18
aF19.18
aF19.18
aF19.18
aF19.18
aF19.18
aF19.18
aF19.18
aF19.18
aF19.18
aF19.18
aF19.18
aF19.18
aF19.18
aF19.18
aF19.18
aF19.18
aF19.18
aF19.18
aF19.18
aF19.18
aF19.18
aF19.18
aF19.18
aF19.18
aF19.18
aF19.18
aF19.18
aF19.18
aF19.18
aF19.18
aF19.18
aF19.18
aF19.18
aF19.18
aF19.18
aF19.18
aF19.18
aF19.18
aF19.18
aF19.18
aF19.18
aF19.18
aF19.18
aF19.18
aF19.18
aF19.18
aF19.18
aF19.18
aF19.18
aF19.18
aF19.18
aF19.18
aF19.18
aF19.18
aF19.18
aF19.18
aF19.18
aF19.18
aF19.18
aF19.18
aF19.18
aF19.18
aF19.18
aF19.18
aF19.18
aF19.18
aF19.18
aF19.18
aF19.18
aF19.18
aF19.18
aF19.18
aF19.18
aF19.18
aF19.18
aF19.18
aF19.18
aF19.18
aF19.18
aF19.18
aF19.18
aF19.18
aF19.18
aF19.18
aF19.18
aF19.18
aF19.18
aF19.18
aF19.18
aF19.18
aF19.18
aF19.18
aF19.18
aF19.18
aF19.18
aF19.18
aF19.18
aF19.18
aF19.18
aF19.18
aF19.18
aF19.18
aF19.18
aF19.18
aF19.18
aF19.18
aF19.18
aF19.18
aF19.18
aF19.18
aF19.18
aF19.18
aF19.18
aF19.18
aF19.18
aF19.18
aF19.18
aF19.18
aF19.18
aF19.18
aF19.18
aF19.18
aF19.18
aF19.18
aF19.18
aF19.18
aF19.18
aF19.18
aF19.18
aF19.18
aF19.18
aF19.18
aF19.18
aF19.18
aF19.18
aF19.18
aF19.18
aF19.18
aF19.18
aF19.18
aF19.18
aF19.18
aF19.18
aF19.18
aF19.18
aF19.18
aF19.18
aF19.18
aF19.18
aF19.18
aF19.18
aF19.18
aF19.18
aF19.18
aF19.18
aF19.18
aF19.18
aF19.18
aF19.18
aF19.18
aF19.18
aF19.18
aF19.18
aF19.18
aF19.18
aF19.18
aF19.18
aF19.18
aF19.18
aF19.18
aF19.18
aF19.18
aF19.18
aF19.18
aF19.18
aF19.18
aF19.18
aF19.18
aF19.18
aF19.18
aF19.18
aF19.18
aF19.18
aF19.18
aF19.18
aF19.18
aF19.18
aF19.18
aF19.18
aF19.18
aF19.18
aF19.18
aF19.18
aF19.18
aF19.18
aF19.18
aF19.18
aF19.18
aF19.18
aF19.18
aF19.18
aF19.18
aF19.18
aF19.18
aF19.18
aF19.18
aF19.18
aF19.18
aF19.18
aF19.18
aF19.18
aF19.18
aF19.18
aF19.18
aF19.18
aF19.18
aF19.18
aF19.18
aF19.18
aF19.18
aF19.18
aF19.18
aF19.18
aF19.18
aF19.18
aF19.18
aF19.18
aF19.18
aF19.13
aF19.13
aF19.13
aF19.13
aF19.13
aF19.13
aF19.13
aF19.13
aF19.13
aF19.13
aF19.13
aF19.13
aF19.13
aF19.13
aF19.13
aF19.13
aF19.13
aF19.13
aF19.13
aF19.13
aF19.13
aF19.13
aF19.13
aF19.13
aF19.13
aF19.13
aF19.13
aF19.1
aF19.1
aF19.1
aF19.1
aF19.1
aF19.1
aF19.1
aF19.1
aF19.1
aF19.1
aF19.1
aF19.1
aF19.1
aF19.1
aF19.1
aF19.1
aF19.1
aF19.1
aF19.1
aF19.1
aF19.1
aF19.1
aF19.1
aF19.1
aF19.1
aF19.1
aF19.1
aF19.1
aF19.1
aF19.1
aF19.1
aF19.1
aF19.1
aF19.1
aF19.1
aF19.1
aF19.1
aF19.1
aF19.1
aF19.1
aF19.1
aF19.1
aF19.1
aF19.1
aF19.1
aF19.1
aF19.1
aF19.1
aF19.1
aF19.1
aF19.1
aF19.1
aF19.1
aF19.1
aF19.1
aF19.1
aF19.1
aF19.1
aF19.1
aF19.1
aF19.1
aF19.1
aF19.1
aF19.1
aF19.1
aF19.1
aF19.1
aF19.1
aF19.1
aF19.1
aF19.1
aF19.1
aF19.1
aF19.1
aF19.1
aF19.1
aF19.1
aF19.1
aF19.1
aF19.1
aF19.1
aF19.1
aF19.1
aF19.1
aF19.1
aF19.1
aF19.1
aF19.1
aF19.1
aF19.1
aF19.1
aF19.1
aF19.1
aF19.1
aF19.1
aF19.1
aF19.1
aF19.1
aF19.1
aF19.1
aF19.1
aF19.1
aF19.1
aF19.1
aF19.1
aF19.1
aF19.1
aF19.1
aF19.1
aF19.1
aF19.1
aF19.1
aF19.1
aF19.1
aF19.1
aF19.1
aF19.1
aF19.1
aF19.1
aF19.1
aF19.1
aF19.1
aF19.1
aF19.1
aF19.1
aF19.1
aF19.1
aF19.1
aF19.1
aF19.1
aF19.1
aF19.1
aF19.1
aF19.1
aF19.1
aF19.1
aF19.1
aF19.1
aF19.1
aF19.1
aF19.1
aF19.1
aF19.1
aF19.1
aF19.1
aF19.1
aF19.1
aF19.1
aF19.1
aF19.1
aF19.1
aF19.1
aF19.1
aF19.1
aF19.1
aF19.1
aF19.1
aF19.1
aF19.1
aF19.1
aF19.1
aF19.1
aF19.1
aF19.1
aF19.1
aF19.1
aF19.1
aF19.1
aF19.1
aF19.1
aF19.1
aF19.1
aF19.1
aF19.1
aF19.1
aF19.1
aF19.1
aF19.1
aF19.1
aF19.1
aF19.1
aF19.1
aF19.1
aF19.1
aF19.1
aF19.1
aF19.1
aF19.1
aF19.1
aF19.1
aF19.1
aF19.1
aF19.1
aF19.1
aF19.1
aF19.1
aF19.1
aF19.1
aF19.1
aF19.1
aF19.1
aF19.1
aF19.1
aF19.1
aF19.1
aF19.1
aF19.1
aF19.1
aF19.1
aF19.1
aF19.1
aF19.1
aF19.1
aF19.1
aF19.1
aF19.1
aF19.1
aF19.1
aF19.1
aF19.1
aF19.1
aF19.1
aF19.1
aF19.1
aF19.1
aF19.1
aF19.1
aF19.1
aF19.1
aF19.1
aF19.1
aF19.1
aF19.1
aF19.1
aF19.1
aF19.1
aF19.1
aF19.1
aF19.1
aF19.1
aF19.1
aF19.1
aF19.1
aF19.1
aF19.1
aF19.1
aF19.1
aF19.1
aF19.1
aF19.1
aF19.1
aF19.1
aF19.1
aF19.1
aF19.1
aF19.09
aF19.09
aF19.09
aF19.09
aF19.09
aF19.09
aF19.06
aF19.06
aF19.06
aF19.06
aF19.06
aF19.06
aF19.06
aF19.06
aF19.06
aF19.06
aF19.06
aF19.06
aF19.06
aF19.06
aF19.06
aF19.06
aF19.06
aF19.06
aF19.06
aF19.06
aF19.06
aF19.06
aF19.06
aF19.06
aF19.06
aF19.06
aF19.06
aF19.06
aF19.06
aF19.06
aF19.06
aF19.06
aF19.06
aF19.06
aF19.06
aF19.06
aF19.06
aF19.06
aF19.06
aF19.06
aF19.06
aF19.06
aF19.06
aF19.06
aF19.06
aF19.06
aF19.06
aF19.06
aF19.06
aF19.06
aF19.06
aF19.06
aF19.06
aF19.06
aF19.06
aF19.06
aF19.06
aF19.06
aF19.06
aF19.06
aF19.06
aF19.06
aF19.06
aF19.06
aF19.06
aF19.06
aF19.06
aF19.06
aF19.06
aF19.06
aF19.06
aF19.06
aF19.06
aF19.06
aF19.06
aF19.06
aF19.06
aF19.06
aF19.06
aF19.06
aF19.06
aF19.06
aF19.06
aF19.06
aF19.06
aF19.06
aF19.06
aF19.06
aF19.06
aF19.06
aF19.06
aF19.06
aF19.06
aF19.06
aF19.06
aF19.06
aF19.06
aF19.06
aF19.06
aF19.06
aF19.06
aF19.06
aF19.06
aF19.06
aF19.06
aF19.06
aF19.06
aF19.06
aF19.06
aF19.06
aF19.06
aF19.06
aF19.06
aF19.06
aF19.06
aF19.06
aF19.06
aF19.06
aF19.06
aF19.06
aF19.06
aF19.06
aF19.06
aF19.06
aF19.06
aF19.06
aF19.06
aF19.06
aF19.06
aF19.06
aF19.06
aF19.06
aF19.06
aF19.06
aF19.06
aF19.06
aF19.06
aF19.06
aF19.06
aF19.06
aF19.06
aF19.06
aF19.06
aF19.06
aF19.06
aF19.06
aF19.06
aF19.06
aF19.06
aF19.06
aF19.06
aF19.06
aF19.06
aF19.06
aF19.06
aF19.06
aF19.06
aF19.06
aF19.06
aF19.06
aF19.06
aF19.06
aF19.06
aF19.06
aF19.06
aF19.06
aF19.06
aF19.06
aF19.06
aF19.06
aF19.06
aF19.06
aF19.06
aF19.06
aF19.06
aF19.06
aF19.06
aF19.06
aF19.06
aF19.06
aF19.06
aF19.06
aF19.06
aF19.06
aF19.06
aF19.06
aF19.06
aF19.06
aF19.06
aF19.06
aF19.06
aF19.06
aF19.06
aF19.06
aF19.06
aF19.06
aF19.06
aF19.06
aF19.06
aF19.06
aF19.06
aF19.06
aF19.06
aF19.06
aF19.06
aF19.06
aF19.06
aF19.06
aF19.06
aF19.06
aF19.06
aF19.06
aF19.06
aF19.06
aF19.06
aF19.06
aF19.06
aF19.06
aF19.06
aF19.06
aF19.06
aF19.06
aF19.06
aF19.06
aF19.06
aF19.06
aF19.06
aF19.06
aF19.06
aF19.06
aF19.06
aF19.06
aF19.06
aF19.06
aF19.06
aF19.06
aF19.06
aF19.06
aF19.06
aF19.06
aF19.06
aF19.06
aF19.06
aF19.06
aF19.06
aF19.06
aF19.06
aF19.06
aF19.06
aF19.06
aF19.06
aF19.06
aF19.06
aF19.06
aF19.06
aF19.06
aF19.06
aF19.06
aF19.06
aF19.06
aF19.06
aF19.06
aF19.06
aF19.06
aF19.06
aF19.06
aF19.06
aF19.06
aF19.06
aF19.06
aF19.06
aF19.06
aF19.06
aF19.06
aF19.06
aF19.06
aF19.06
aF19.06
aF19.06
aF19.06
aF19.06
aF19.06
aF19.06
aF19.06
aF19.06
aF19.06
aF19.06
aF19.06
aF19.06
aF19.06
aF19.06
aF19.06
aF19.06
aF19.06
aF19.06
aF19.06
aF19.06
aF19.06
aF19.06
aF19.06
aF19.06
aF19.06
aF19.06
aF19.06
aF19.06
aF19.06
aF19.06
aF19.06
aF19.06
aF19.06
aF19.06
aF19.06
aF19.06
aF19.06
aF19.06
aF19.06
aF19.06
aF19.06
aF19.06
aF19.06
aF19.06
aF19.06
aF19.06
aF19.06
aF19.06
aF19.06
aF19.06
aF19.06
aF19.06
aF19.06
aF19.06
aF19.06
aF19.06
aF19.06
aF19.06
aF19.05
aF19.05
aF19.05
aF19.05
aF19.05
aF19.05
aF19.05
aF19.05
aF19.05
aF19.05
aF19.05
aF19.05
aF19.05
aF19.05
aF19.05
aF19.05
aF19.05
aF19.05
aF19.05
aF19.05
aF19.05
aF19.05
aF19.03
aF19.03
aF19.03
aF19.03
aF19.03
aF19.03
aF19.03
aF19.03
aF19.03
aF19.03
aF19.03
aF19.03
aF19.03
aF19.03
aF19.03
aF19.03
aF19.03
aF19.03
aF19.03
aF19.03
aF19.03
aF19.03
aF19.03
aF19.03
aF19.03
aF19.03
aF19.03
aF19.03
aF19.03
aF19.03
aF19.03
aF19.03
aF19.03
aF19.03
aF19.03
aF19.03
aF19.03
aF19.03
aF19.03
aF19.03
aF19.03
aF19.03
aF19.03
aF19.03
aF19.03
aF19.03
aF19.03
aF19.03
aF19.03
aF19.03
aF19.03
aF19.03
aF19.03
aF19.03
aF19.03
aF19.03
aF19.03
aF19.03
aF19.03
aF19.03
aF19.03
aF19.03
aF19.03
aF19.03
aF19.03
aF19.03
aF19.03
aF19.03
aF19.03
aF19.03
aF19.03
aF19.03
aF19.03
aF19.03
aF19.03
aF19.03
aF19.03
aF19.03
aF19.03
aF19.03
aF19.03
aF19.03
aF19.03
aF19.03
aF19.03
aF19.03
aF19.03
aF19.03
aF19.03
aF19.03
aF19.03
aF19.03
aF19.03
aF19.03
aF19.03
aF19.03
aF19.03
aF19.03
aF19.03
aF19.03
aF19.03
aF19.03
aF19.03
aF19.03
aF19.03
aF19.03
aF19.03
aF19.03
aF19.03
aF19.03
aF19.03
aF19.03
aF19.03
aF19.03
aF19.03
aF19.03
aF19.03
aF19.03
aF19.03
aF19.03
aF19.03
aF19.03
aF19.03
aF19.03
aF19.03
aF19.03
aF19.03
aF19.03
aF19.03
aF19.03
aF19.03
aF19.03
aF19.01
aF19.01
aF19.01
aF19.01
aF19.01
aF19.01
aF19.01
aF19.01
aF19.01
aF19.01
aF19.01
aF19.01
aF19.01
aF19.01
aF19.01
aF19.01
aF19.01
aF19.01
aF19.01
aF19.01
aF19.01
aF19.01
aF19.01
aF19.01
aF19.01
aF19.01
aF19.01
aF19.01
aF19.01
aF19.01
aF19.01
aF19.01
aF19.01
aF19.01
aF19.01
aF19.01
aF19.01
aF19.01
aF19.01
aF19.01
aF19.01
aF19.01
aF19.01
aF19.01
aF19.01
aF19.01
aF19.01
aF19.01
aF19.01
aF19.01
aF19.01
aF19.01
aF19.01
aF19.01
aF19.01
aF19.01
aF19.01
aF19.01
aF19.01
aF19.01
aF19.01
aF19.01
aF19.01
aF19.01
aF19.01
aF19.01
aF19.01
aF19.01
aF19.01
aF19.01
aF19.01
aF19.01
aF19.01
aF19.01
aF19.01
aF19.01
aF19.01
aF19.01
aF19.01
aF19.01
aF19.01
aF19.01
aF19.01
aF19.01
aF19.01
aF19.01
aF19.01
aF19.01
aF19.01
aF19.01
aF19.01
aF19.01
aF19.01
aF19.01
aF19.01
aF19.01
aF19.01
aF19.01
aF19.01
aF19.01
aF19.01
aF19.01
aF19.01
aF19.01
aF19.01
aF19.01
aF19.01
aF19.01
aF19.01
aF19.01
aF19.01
aF19.01
aF19.01
aF19.01
aF19.01
aF19.01
aF19.01
aF19.01
aF19.01
aF19.01
aF19.01
aF19.01
aF19.01
aF19.01
aF19.01
aF19.01
aF19.01
aF19.01
aF19.01
aF19.01
aF19.01
aF19.01
aF19.01
aF19.01
aF19.01
aF19.01
aF19.01
aF19.01
aF19.01
aF19.01
aF19.01
aF19.01
aF19.01
aF19.01
aF19.01
aF19.01
aF19.01
aF19.01
aF19.01
aF19.01
aF19.01
aF19.01
aF19.01
aF19.01
aF19.01
aF19.01
aF19.01
aF19.01
aF19.01
aF19.01
aF19.01
aF19.01
aF19.01
aF19.01
aF19.01
aF19.01
aF19.01
aF19.01
aF19.01
aF19.01
aF19.01
aF19.01
aF19.01
aF19.01
aF19.01
aF19.01
aF19.01
aF19.01
aF19.01
aF19.01
aF19.01
aF19.01
aF19.01
aF19.01
aF19.01
aF19.01
aF19.01
aF19.01
aF19.01
aF19.01
aF19.01
aF19.01
aF19.01
aF19.01
aF19.01
aF19.01
aF19.01
aF19.01
aF19.01
aF19.01
aF19.01
aF19.01
aF19.01
aF19.01
aF19.01
aF19.01
aF19.01
aF19.01
aF19.01
aF19.01
aF19.01
aF19.01
aF19.01
aF19.01
aF19.01
aF19.01
aF19.01
aF19.01
aF19.01
aF19.01
aF19.01
aF19.01
aF19.01
aF19.01
aF19.01
aF19.01
aF19.01
aF19.01
aF19.01
aF19.01
aF19.01
aF19.01
aF19.01
aF19.01
aF19.01
aF19.01
aF19.01
aF19.01
aF19.01
aF19.01
aF19.01
aF19.01
aF19.01
aF19.01
aF19.01
aF19.01
aF19.01
aF19.01
aF19.01
aF19.01
aF19.01
aF19.01
aF19.01
aF19.01
aF19.01
aF19.01
aF19.01
aF19.01
aF19.01
aF19.01
aF19.01
aF19.01
aF19.01
aF19.01
aF19.01
aF19.01
aF19.01
aF19.01
aF19.01
aF19.01
aF19.01
aF19.01
aF19.01
aF19.01
aF19.01
aF19.01
aF19.01
aF19.01
aF19.01
aF19.01
aF19.01
aF19.01
aF19.01
aF19.01
aF19.01
aF19.01
aF19.01
aF19.01
aF19.01
aF19.01
aF19.01
aF19.01
aF19.01
aF19.01
aF19.01
aF19.01
aF19.01
aF19.01
aF19.01
aF19.01
aF19.01
aF19.01
aF19.01
aF19.01
aF19.01
aF19.01
aF19.01
aF19.01
aF19.01
aF19.01
aF19.01
aF19.01
aF19.01
aF19.01
aF19.01
aF19.01
aF19.01
aF19.01
aF19.01
aF19.01
aF19.01
aF19.01
aF19.01
aF19.01
aF19.01
aF19.01
aF19.01
aF19.01
aF19.01
aF19.01
aF19.01
aF19.01
aF19.01
aF19.01
aF19.01
aF19.01
aF19.01
aF19.01
aF19.01
aF19.01
aF19.01
aF19.01
aF19.01
aF19.01
aF19.01
aF19.01
aF19.01
aF19.01
aF19.01
aF19.01
aF19.01
aF19.01
aF19.01
aF19.01
aF19.01
aF19.01
aF19.01
aF19.01
aF19.01
aF19.01
aF19.01
aF19.01
aF19.01
aF19.01
aF19.01
aF19.01
aF19.01
aF19.01
aF19.01
aF19.01
aF19.01
aF19.01
aF19.01
aF19.01
aF18.91
aF18.91
aF18.91
aF18.91
aF18.91
aF18.91
aF18.91
aF18.91
aF18.91
aF18.91
aF18.91
aF18.91
aF18.91
aF18.91
aF18.91
aF18.91
aF18.91
aF18.91
aF18.91
aF18.91
aF18.91
aF18.91
aF18.91
aF18.91
aF18.91
aF18.91
aF18.91
aF18.91
aF18.91
aF18.91
aF18.91
aF18.91
aF18.91
aF18.91
aF18.91
aF18.91
aF18.91
aF18.91
aF18.91
aF18.91
aF18.91
aF18.91
aF18.91
aF18.91
aF18.91
aF18.91
aF18.91
aF18.91
aF18.91
aF18.91
aF18.91
aF18.91
aF18.91
aF18.91
aF18.91
aF18.91
aF18.91
aF18.91
aF18.91
aF18.91
aF18.91
aF18.91
aF18.91
aF18.91
aF18.91
aF18.91
aF18.91
aF18.91
aF18.91
aF18.91
aF18.91
aF18.91
aF18.91
aF18.91
aF18.91
aF18.91
aF18.91
aF18.91
aF18.91
aF18.91
aF18.91
aF18.91
aF18.91
aF18.91
aF18.91
aF18.91
aF18.91
aF18.91
aF18.91
aF18.91
aF18.91
aF18.91
aF18.91
aF18.91
aF18.91
aF18.91
aF18.91
aF18.91
aF18.91
aF18.91
aF18.91
aF18.91
aF18.91
aF18.91
aF18.91
aF18.91
aF18.91
aF18.91
aF18.91
aF18.91
aF18.91
aF18.91
aF18.91
aF18.91
aF18.91
aF18.91
aF18.91
aF18.91
aF18.91
aF18.91
aF18.91
aF18.91
aF18.91
aF18.91
aF18.91
aF18.91
aF18.91
aF18.91
aF18.91
aF18.91
aF18.91
aF18.91
aF18.91
aF18.91
aF18.91
aF18.91
aF18.91
aF18.91
aF18.91
aF18.91
aF18.91
aF18.91
aF18.91
aF18.91
aF18.91
aF18.91
aF18.91
aF18.91
aF18.91
aF18.91
aF18.91
aF18.91
aF18.91
aF18.91
aF18.91
aF18.91
aF18.91
aF18.91
aF18.91
aF18.91
aF18.91
aF18.91
aF18.91
aF18.91
aF18.91
aF18.91
aF18.91
aF18.91
aF18.91
aF18.91
aF18.91
aF18.91
aF18.91
aF18.91
aF18.91
aF18.91
aF18.91
aF18.91
aF18.91
aF18.91
aF18.91
aF18.91
aF18.91
aF18.91
aF18.91
aF18.91
aF18.91
aF18.91
aF18.91
aF18.91
aF18.91
aF18.91
aF18.91
aF18.91
aF18.91
aF18.91
aF18.91
aF18.91
aF18.91
aF18.91
aF18.91
aF18.91
aF18.91
aF18.91
aF18.91
aF18.91
aF18.91
aF18.91
aF18.91
aF18.91
aF18.91
aF18.91
aF18.91
aF18.91
aF18.91
aF18.91
aF18.91
aF18.91
aF18.91
aF18.91
aF18.91
aF18.91
aF18.91
aF18.91
aF18.91
aF18.91
aF18.91
aF18.91
aF18.91
aF18.91
aF18.91
aF18.91
aF18.91
aF18.91
aF18.91
aF18.91
aF18.91
aF18.91
aF18.91
aF18.91
aF18.91
aF18.91
aF18.91
aF18.91
aF18.91
aF18.91
aF18.91
aF18.91
aF18.91
aF18.91
aF18.91
aF18.91
aF18.91
aF18.91
aF18.91
aF18.91
aF18.91
aF18.91
aF18.91
aF18.91
aF18.91
aF18.91
aF18.91
aF18.91
aF18.91
aF18.91
aF18.91
aF18.91
aF18.91
aF18.91
aF18.91
aF18.91
aF18.91
aF18.91
aF18.91
aF18.91
aF18.91
aF18.91
aF18.91
aF18.91
aF18.91
aF18.91
aF18.91
aF18.91
aF18.91
aF18.91
aF18.91
aF18.91
aF18.91
aF18.91
aF18.91
aF18.91
aF18.91
aF18.91
aF18.91
aF18.91
aF18.91
aF18.91
aF18.91
aF18.91
aF18.91
aF18.91
aF18.91
aF18.91
aF18.91
aF18.91
aF18.91
aF18.91
aF18.91
aF18.91
aF18.91
aF18.91
aF18.91
aF18.91
aF18.91
aF18.91
aF18.91
aF18.91
aF18.91
aF18.91
aF18.91
aF18.91
aF18.91
aF18.91
aF18.91
aF18.91
aF18.91
aF18.91
aF18.91
aF18.91
aF18.91
aF18.91
aF18.91
aF18.91
aF18.91
aF18.91
aF18.91
aF18.91
aF18.91
aF18.91
aF18.91
aF18.91
aF18.91
aF18.91
aF18.91
aF18.91
aF18.91
aF18.91
aF18.91
aF18.91
aF18.91
aF18.91
aF18.91
aF18.91
aF18.91
aF18.91
aF18.91
aF18.91
aF18.91
aF18.91
aF18.91
aF18.91
aF18.91
aF18.91
aF18.91
aF18.91
aF18.91
aF18.91
aF18.91
aF18.91
aF18.91
aF18.91
aF18.91
aF18.91
aF18.91
aF18.91
aF18.91
aF18.91
aF18.91
aF18.91
aF18.91
aF18.85
aF18.85
aF18.85
aF18.85
aF18.85
aF18.85
aF18.85
aF18.85
aF18.85
aF18.85
aF18.85
aF18.85
aF18.85
aF18.85
aF18.85
aF18.85
aF18.85
aF18.85
aF18.85
aF18.85
aF18.85
aF18.85
aF18.85
aF18.85
aF18.85
aF18.85
aF18.85
aF18.85
aF18.85
aF18.85
aF18.85
aF18.85
aF18.85
aF18.85
aF18.85
aF18.85
aF18.85
aF18.85
aF18.85
aF18.85
aF18.85
aF18.85
aF18.85
aF18.85
aF18.85
aF18.85
aF18.85
aF18.85
aF18.85
aF18.85
aF18.85
aF18.85
aF18.85
aF18.85
aF18.85
aF18.85
aF18.85
aF18.85
aF18.85
aF18.85
aF18.85
aF18.85
aF18.85
aF18.85
aF18.85
aF18.85
aF18.85
aF18.85
aF18.85
aF18.85
aF18.85
aF18.85
aF18.85
aF18.85
aF18.85
aF18.85
aF18.85
aF18.85
aF18.85
aF18.85
aF18.85
aF18.85
aF18.85
aF18.85
aF18.85
aF18.85
aF18.85
aF18.85
aF18.85
aF18.85
aF18.85
aF18.85
aF18.85
aF18.85
aF18.85
aF18.85
aF18.85
aF18.85
aF18.85
aF18.85
aF18.85
aF18.85
aF18.85
aF18.85
aF18.85
aF18.85
aF18.85
aF18.85
aF18.85
aF18.85
aF18.85
aF18.85
aF18.85
aF18.85
aF18.85
aF18.85
aF18.85
aF18.85
aF18.85
aF18.85
aF18.85
aF18.85
aF18.85
aF18.85
aF18.85
aF18.85
aF18.85
aF18.85
aF18.85
aF18.85
aF18.85
aF18.85
aF18.85
aF18.85
aF18.85
aF18.85
aF18.85
aF18.85
aF18.85
aF18.85
aF18.85
aF18.85
aF18.85
aF18.85
aF18.85
aF18.85
aF18.85
aF18.85
aF18.85
aF18.85
aF18.85
aF18.85
aF18.85
aF18.85
aF18.85
aF18.85
aF18.85
aF18.85
aF18.85
aF18.85
aF18.85
aF18.85
aF18.85
aF18.85
aF18.85
aF18.85
aF18.85
aF18.85
aF18.85
aF18.85
aF18.85
aF18.85
aF18.85
aF18.85
aF18.85
aF18.85
aF18.85
aF18.85
aF18.85
aF18.85
aF18.85
aF18.85
aF18.85
aF18.85
aF18.85
aF18.85
aF18.85
aF18.85
aF18.85
aF18.85
aF18.85
aF18.85
aF18.85
aF18.85
aF18.85
aF18.85
aF18.85
aF18.85
aF18.85
aF18.85
aF18.85
aF18.85
aF18.85
aF18.85
aF18.85
aF18.85
aF18.85
aF18.85
aF18.85
aF18.85
aF18.85
aF18.85
aF18.85
aF18.85
aF18.85
aF18.85
aF18.85
aF18.85
aF18.85
aF18.85
aF18.85
aF18.85
aF18.85
aF18.85
aF18.85
aF18.85
aF18.85
aF18.85
aF18.85
aF18.85
aF18.85
aF18.85
aF18.85
aF18.85
aF18.85
aF18.85
aF18.85
aF18.85
aF18.85
aF18.85
aF18.85
aF18.85
aF18.85
aF18.85
aF18.85
aF18.85
aF18.85
aF18.85
aF18.85
aF18.85
aF18.85
aF18.85
aF18.85
aF18.85
aF18.85
aF18.85
aF18.85
aF18.85
aF18.85
aF18.85
aF18.85
aF18.85
aF18.85
aF18.85
aF18.85
aF18.85
aF18.85
aF18.85
aF18.85
aF18.85
aF18.85
aF18.85
aF18.85
aF18.85
aF18.85
aF18.85
aF18.85
aF18.85
aF18.85
aF18.85
aF18.85
aF18.85
aF18.85
aF18.85
aF18.85
aF18.85
aF18.85
aF18.85
aF18.85
aF18.85
aF18.85
aF18.85
aF18.85
aF18.85
aF18.85
aF18.85
aF18.85
aF18.85
aF18.85
aF18.85
aF18.85
aF18.85
aF18.85
aF18.85
aF18.85
aF18.85
aF18.85
aF18.85
aF18.85
aF18.85
aF18.85
aF18.85
aF18.85
aF18.85
aF18.85
aF18.85
aF18.85
aF18.85
aF18.85
aF18.85
aF18.85
aF18.85
aF18.85
aF18.85
aF18.85
aF18.85
aF18.85
aF18.85
aF18.85
aF18.85
aF18.85
aF18.85
aF18.85
aF18.85
aF18.85
aF18.85
aF18.85
aF18.85
aF18.85
aF18.85
aF18.85
aF18.85
aF18.85
aF18.85
aF18.85
aF18.85
aF18.85
aF18.85
aF18.85
aF18.85
aF18.85
aF18.85
aF18.85
aF18.85
aF18.85
aF18.85
aF18.85
aF18.85
aF18.85
aF18.85
aF18.85
aF18.85
aF18.85
aF18.85
aF18.85
aF18.85
aF18.85
aF18.85
aF18.85
aF18.85
aF18.85
aF18.85
aF18.85
aF18.85
aF18.85
aF18.85
aF18.85
aF18.85
aF18.85
aF18.85
aF18.85
aF18.85
aF18.85
aF18.85
aF18.85
aF18.85
aF18.85
aF18.85
aF18.85
aF18.85
aF18.85
aF18.85
aF18.85
aF18.85
aF18.85
aF18.85
aF18.85
aF18.85
aF18.85
aF18.85
aF18.85
aF18.85
aF18.85
aF18.85
aF18.85
aF18.85
aF18.85
aF18.85
aF18.85
aF18.85
aF18.85
aF18.85
aF18.85
aF18.85
aF18.85
aF18.85
aF18.85
aF18.85
aF18.85
aF18.85
aF18.85
aF18.85
aF18.85
aF18.85
aF18.85
aF18.85
aF18.85
aF18.85
aF18.85
aF18.85
aF18.85
aF18.85
aF18.85
aF18.85
aF18.85
aF18.85
aF18.85
aF18.85
aF18.85
aF18.85
aF18.85
aF18.85
aF18.85
aF18.85
aF18.85
aF18.85
aF18.85
aF18.85
aF18.85
aF18.85
aF18.85
aF18.85
aF18.85
aF18.85
aF18.85
aF18.85
aF18.85
aF18.85
aF18.85
aF18.85
aF18.85
aF18.85
aF18.85
aF18.85
aF18.85
aF18.85
aF18.85
aF18.85
aF18.85
aF18.85
aF18.85
aF18.85
aF18.85
aF18.85
aF18.85
aF18.85
aF18.85
aF18.85
aF18.85
aF18.85
aF18.85
aF18.85
aF18.85
aF18.85
aF18.85
aF18.85
aF18.85
aF18.85
aF18.85
aF18.85
aF18.85
aF18.85
aF18.85
aF18.85
aF18.85
aF18.85
aF18.85
aF18.85
aF18.85
aF18.85
aF18.85
aF18.85
aF18.85
aF18.85
aF18.85
aF18.85
aF18.78
aF18.78
aF18.78
aF18.78
aF18.78
aF18.78
aF18.78
aF18.78
aF18.78
aF18.78
aF18.78
aF18.78
aF18.78
aF18.78
aF18.78
aF18.78
aF18.78
aF18.78
aF18.78
aF18.78
aF18.78
aF18.78
aF18.78
aF18.78
aF18.78
aF18.78
aF18.78
aF18.78
aF18.78
aF18.78
aF18.78
aF18.78
aF18.78
aF18.78
aF18.78
aF18.78
aF18.78
aF18.78
aF18.78
aF18.78
aF18.78
aF18.78
aF18.78
aF18.78
aF18.78
aF18.78
aF18.78
aF18.78
aF18.78
aF18.78
aF18.78
aF18.78
aF18.78
aF18.78
aF18.78
aF18.78
aF18.78
aF18.78
aF18.78
aF18.78
aF18.78
aF18.78
aF18.78
aF18.78
aF18.78
aF18.78
aF18.78
aF18.78
aF18.78
aF18.78
aF18.78
aF18.78
aF18.78
aF18.78
aF18.78
aF18.78
aF18.78
aF18.78
aF18.78
aF18.78
aF18.78
aF18.78
aF18.78
aF18.78
aF18.78
aF18.78
aF18.78
aF18.78
aF18.78
aF18.78
aF18.78
aF18.78
aF18.78
aF18.78
aF18.78
aF18.78
aF18.78
aF18.78
aF18.78
aF18.78
aF18.78
aF18.78
aF18.78
aF18.78
aF18.78
aF18.78
aF18.78
aF18.78
aF18.78
aF18.78
aF18.78
aF18.78
aF18.78
aF18.78
aF18.78
aF18.78
aF18.78
aF18.78
aF18.78
aF18.78
aF18.78
aF18.78
aF18.78
aF18.78
aF18.78
aF18.78
aF18.78
aF18.78
aF18.78
aF18.78
aF18.78
aF18.78
aF18.78
aF18.78
aF18.78
aF18.78
aF18.78
aF18.78
aF18.78
aF18.78
aF18.78
aF18.78
aF18.78
aF18.78
aF18.78
aF18.78
aF18.78
aF18.78
aF18.78
aF18.78
aF18.78
aF18.78
aF18.78
aF18.78
aF18.78
aF18.78
aF18.78
aF18.78
aF18.78
aF18.78
aF18.78
aF18.78
aF18.78
aF18.78
aF18.78
aF18.78
aF18.78
aF18.78
aF18.78
aF18.78
aF18.78
aF18.78
aF18.78
aF18.78
aF18.78
aF18.78
aF18.78
aF18.78
aF18.78
aF18.78
aF18.78
aF18.78
aF18.78
aF18.78
aF18.78
aF18.78
aF18.78
aF18.78
aF18.78
aF18.78
aF18.78
aF18.78
aF18.78
aF18.78
aF18.78
aF18.78
aF18.78
aF18.78
aF18.78
aF18.78
aF18.78
aF18.78
aF18.78
aF18.78
aF18.78
aF18.78
aF18.78
aF18.78
aF18.78
aF18.78
aF18.78
aF18.78
aF18.78
aF18.78
aF18.78
aF18.78
aF18.78
aF18.78
aF18.78
aF18.78
aF18.78
aF18.78
aF18.78
aF18.78
aF18.78
aF18.78
aF18.78
aF18.78
aF18.78
aF18.78
aF18.78
aF18.78
aF18.78
aF18.78
aF18.78
aF18.78
aF18.78
aF18.78
aF18.78
aF18.78
aF18.78
aF18.78
aF18.78
aF18.78
aF18.78
aF18.78
aF18.78
aF18.78
aF18.78
aF18.78
aF18.78
aF18.78
aF18.78
aF18.78
aF18.78
aF18.78
aF18.78
aF18.78
aF18.78
aF18.78
aF18.78
aF18.78
aF18.78
aF18.78
aF18.78
aF18.78
aF18.78
aF18.78
aF18.78
aF18.78
aF18.78
aF18.78
aF18.78
aF18.78
aF18.78
aF18.78
aF18.78
aF18.78
aF18.78
aF18.78
aF18.78
aF18.78
aF18.78
aF18.78
aF18.78
aF18.78
aF18.78
aF18.78
aF18.78
aF18.78
aF18.78
aF18.78
aF18.78
aF18.78
aF18.78
aF18.78
aF18.78
aF18.78
aF18.78
aF18.78
aF18.78
aF18.78
aF18.78
aF18.78
aF18.78
aF18.78
aF18.78
aF18.78
aF18.78
aF18.78
aF18.78
aF18.78
aF18.78
aF18.78
aF18.78
aF18.78
aF18.78
aF18.78
aF18.78
aF18.78
aF18.78
aF18.78
aF18.78
aF18.78
aF18.78
aF18.78
aF18.78
aF18.78
aF18.78
aF18.78
aF18.78
aF18.78
aF18.78
aF18.78
aF18.78
aF18.78
aF18.78
aF18.78
aF18.78
aF18.78
aF18.78
aF18.78
aF18.78
aF18.78
aF18.78
aF18.78
aF18.78
aF18.78
aF18.78
aF18.78
aF18.78
aF18.78
aF18.78
aF18.78
aF18.78
aF18.78
aF18.78
aF18.78
aF18.78
aF18.78
aF18.78
aF18.78
aF18.78
aF18.78
aF18.78
aF18.78
aF18.78
aF18.78
aF18.78
aF18.78
aF18.78
aF18.78
aF18.78
aF18.78
aF18.78
aF18.78
aF18.78
aF18.78
aF18.78
aF18.78
aF18.78
aF18.78
aF18.78
aF18.78
aF18.78
aF18.78
aF18.78
aF18.78
aF18.78
aF18.78
aF18.78
aF18.78
aF18.78
aF18.78
aF18.78
aF18.78
aF18.78
aF18.78
aF18.78
aF18.78
aF18.78
aF18.78
aF18.78
aF18.78
aF18.78
aF18.78
aF18.78
aF18.78
aF18.78
aF18.78
aF18.78
aF18.78
aF18.78
aF18.78
aF18.78
aF18.78
aF18.78
aF18.78
aF18.78
aF18.78
aF18.78
aF18.78
aF18.78
aF18.78
aF18.78
aF18.78
aF18.78
aF18.78
aF18.78
aF18.78
aF18.78
aF18.78
aF18.78
aF18.78
aF18.78
aF18.78
aF18.78
aF18.78
aF18.78
aF18.78
aF18.78
aF18.78
aF18.78
aF18.78
aF18.78
aF18.78
aF18.78
aF18.78
aF18.78
aF18.78
aF18.78
aF18.78
aF18.78
aF18.78
aF18.78
aF18.78
aF18.78
aF18.78
aF18.78
aF18.78
aF18.78
aF18.78
aF18.78
aF18.78
aF18.78
aF18.78
aF18.78
aF18.78
aF18.78
aF18.78
aF18.78
aF18.78
aF18.78
aF18.78
aF18.78
aF18.78
aF18.78
aF18.78
aF18.78
aF18.78
aF18.78
aF18.78
aF18.78
aF18.78
aF18.78
aF18.78
aF18.78
aF18.78
aF18.78
aF18.78
aF18.78
aF18.78
aF18.78
aF18.78
aF18.78
aF18.78
aF18.78
aF18.78
aF18.78
aF18.78
aF18.78
aF18.78
aF18.78
aF18.78
aF18.78
aF18.78
aF18.78
aF18.78
aF18.78
aF18.78
aF18.78
aF18.78
aF18.78
aF18.78
aF18.78
aF18.78
aF18.78
aF18.78
aF18.78
aF18.78
aF18.78
aF18.78
aF18.78
aF18.78
aF18.78
aF18.78
aF18.78
aF18.78
aF18.78
aF18.78
aF18.78
aF18.78
aF18.78
aF18.78
aF18.78
aF18.78
aF18.78
aF18.78
aF18.78
aF18.78
aF18.78
aF18.78
aF18.78
aF18.78
aF18.78
aF18.78
aF18.78
aF18.78
aF18.78
aF18.78
aF18.78
aF18.78
aF18.78
aF18.78
aF18.78
aF18.78
aF18.78
aF18.78
aF18.78
aF18.78
aF18.78
aF18.78
aF18.78
aF18.78
aF18.78
aF18.78
aF18.78
aF18.78
aF18.78
aF18.78
aF18.78
aF18.78
aF18.78
aF18.78
aF18.78
aF18.78
aF18.78
aF18.78
aF18.78
aF18.78
aF18.78
aF18.78
aF18.78
aF18.78
aF18.78
aF18.78
aF18.78
aF18.78
aF18.78
aF18.78
aF18.78
aF18.78
aF18.78
aF18.78
aF18.78
aF18.78
aF18.78
aF18.78
aF18.78
aF18.78
aF18.78
aF18.78
aF18.78
aF18.78
aF18.78
aF18.78
aF18.78
aF18.78
aF18.78
aF18.78
aF18.78
aF18.78
aF18.78
aF18.78
aF18.78
aF18.78
aF18.78
aF18.78
aF18.78
aF18.78
aF18.78
aF18.78
aF18.78
aF18.78
aF18.78
aF18.78
aF18.78
aF18.78
aF18.78
aF18.78
aF18.78
aF18.78
aF18.78
aF18.78
aF18.78
aF18.78
aF18.78
aF18.78
aF18.78
aF18.78
aF18.78
aF18.78
aF18.78
aF18.78
aF18.78
aF18.78
aF18.78
aF18.78
aF18.78
aF18.78
aF18.78
aF18.78
aF18.78
aF18.78
aF18.78
aF18.78
aF18.78
aF18.78
aF18.78
aF18.78
aF18.78
aF18.78
aF18.78
aF18.78
aF18.78
aF18.78
aF18.78
aF18.78
aF18.78
aF18.78
aF18.78
aF18.78
aF18.78
aF18.78
aF18.78
aF18.78
aF18.78
aF18.78
aF18.78
aF18.78
aF18.78
aF18.78
aF18.78
aF18.78
aF18.78
aF18.78
aF18.78
aF18.78
aF18.78
aF18.78
aF18.78
aF18.78
aF18.78
aF18.78
aF18.78
aF18.78
aF18.78
aF18.78
aF18.78
aF18.78
aF18.78
aF18.78
aF18.78
aF18.78
aF18.78
aF18.78
aF18.78
aF18.78
aF18.78
aF18.78
aF18.78
aF18.78
aF18.78
aF18.78
aF18.78
aF18.78
aF18.78
aF18.78
aF18.78
aF18.78
aF18.78
aF18.78
aF18.78
aF18.78
aF18.78
aF18.78
aF18.78
aF18.78
aF18.78
aF18.78
aF18.78
aF18.78
aF18.78
aF18.78
aF18.78
aF18.78
aF18.78
aF18.78
aF18.78
aF18.78
aF18.78
aF18.78
aF18.78
aF18.78
aF18.78
aF18.78
aF18.78
aF18.78
aF18.78
aF18.78
aF18.78
aF18.78
aF18.78
aF18.78
aF18.78
aF18.78
aF18.78
aF18.78
aF18.78
aF18.78
aF18.78
aF18.78
aF18.78
aF18.78
aF18.78
aF18.78
aF18.78
aF18.78
aF18.78
aF18.78
aF18.78
aF18.78
aF18.78
aF18.78
aF18.78
aF18.78
aF18.78
aF18.78
aF18.78
aF18.78
aF18.78
aF18.78
aF18.78
aF18.78
aF18.78
aF18.78
aF18.78
aF18.78
aF18.78
aF18.78
aF18.78
aF18.78
aF18.78
aF18.78
aF18.78
aF18.78
aF18.78
aF18.78
aF18.78
aF18.78
aF18.78
aF18.78
aF18.78
aF18.78
aF18.78
aF18.78
aF18.78
aF18.78
aF18.78
aF18.78
aF18.78
aF18.78
aF18.78
aF18.78
aF18.78
aF18.78
aF18.78
aF18.78
aF18.78
aF18.78
aF18.78
aF18.78
aF18.78
aF18.78
aF18.78
aF18.78
aF18.78
aF18.78
aF18.78
aF18.78
aF18.78
aF18.78
aF18.78
aF18.78
aF18.78
aF18.78
aF18.78
aF18.78
aF18.78
aF18.78
aF18.78
aF18.78
aF18.78
aF18.78
aF18.78
aF18.78
aF18.78
aF18.78
aF18.78
aF18.78
aF18.78
aF18.78
aF18.78
aF18.78
aF18.78
aF18.78
aF18.78
aF18.78
aF18.78
aF18.78
aF18.78
aF18.78
aF18.78
aF18.78
aF18.78
aF18.78
aF18.78
aF18.78
aF18.78
aF18.78
aF18.78
aF18.78
aF18.78
aF18.78
aF18.78
aF18.78
aF18.78
aF18.78
aF18.78
aF18.78
aF18.78
aF18.78
aF18.78
aF18.78
aF18.78
aF18.78
aF18.78
aF18.78
aF18.78
aF18.78
aF18.78
aF18.78
aF18.78
aF18.78
aF18.78
aF18.78
aF18.78
aF18.78
aF18.78
aF18.78
aF18.78
aF18.78
aF18.78
aF18.78
aF18.78
aF18.78
aF18.78
aF18.78
aF18.78
aF18.78
aF18.78
aF18.78
aF18.78
aF18.78
aF18.78
aF18.78
aF18.78
aF18.78
aF18.78
aF18.78
aF18.78
aF18.78
aF18.78
aF18.78
aF18.78
aF18.78
aF18.78
aF18.78
aF18.78
aF18.78
aF18.78
aF18.78
aF18.78
aF18.78
aF18.78
aF18.78
aF18.78
aF18.78
aF18.78
aF18.78
aF18.78
aF18.78
aF18.78
aF18.78
aF18.78
aF18.78
aF18.78
aF18.78
aF18.78
aF18.78
aF18.78
aF18.78
aF18.78
aF18.78
aF18.78
aF18.78
aF18.78
aF18.78
aF18.78
aF18.78
aF18.78
aF18.78
aF18.78
aF18.78
aF18.78
aF18.78
aF18.78
aF18.78
aF18.78
aF18.78
aF18.78
aF18.78
aF18.78
aF18.78
aF18.78
aF18.78
aF18.78
aF18.78
aF18.78
aF18.78
aF18.78
aF18.78
aF18.78
aF18.78
aF18.78
aF18.78
aF18.78
aF18.78
aF18.78
aF18.78
aF18.78
aF18.78
aF18.78
aF18.78
aF18.78
aF18.78
aF18.78
aF18.78
aF18.78
aF18.78
aF18.78
aF18.78
aF18.78
aF18.78
aF18.78
aF18.78
aF18.78
aF18.78
aF18.78
aF18.78
aF18.78
aF18.78
aF18.78
aF18.78
aF18.78
aF18.78
aF18.78
aF18.78
aF18.78
aF18.78
aF18.78
aF18.78
aF18.78
aF18.78
aF18.78
aF18.78
aF18.78
aF18.78
aF18.78
aF18.78
aF18.78
aF18.78
aF18.78
aF18.78
aF18.78
aF18.78
aF18.78
aF18.78
aF18.78
aF18.78
aF18.78
aF18.78
aF18.78
aF18.78
aF18.78
aF18.78
aF18.78
aF18.78
aF18.78
aF18.78
aF18.78
aF18.78
aF18.78
aF18.78
aF18.78
aF18.78
aF18.78
aF18.78
aF18.78
aF18.78
aF18.78
aF18.78
aF18.78
aF18.78
aF18.78
aF18.78
aF18.78
aF18.78
aF18.78
aF18.78
aF18.78
aF18.78
aF18.78
aF18.78
aF18.78
aF18.78
aF18.78
aF18.78
aF18.78
aF18.78
aF18.78
aF18.78
aF18.78
aF18.78
aF18.78
aF18.78
aF18.78
aF18.78
aF18.78
aF18.78
aF18.78
aF18.78
aF18.78
aF18.78
aF18.78
aF18.78
aF18.78
aF18.78
aF18.78
aF18.78
aF18.78
aF18.78
aF18.78
aF18.78
aF18.78
aF18.78
aF18.78
aF18.78
aF18.78
aF18.78
aF18.78
aF18.78
aF18.78
aF18.78
aF18.78
aF18.78
aF18.78
aF18.78
aF18.78
aF18.78
aF18.78
aF18.78
aF18.78
aF18.78
aF18.78
aF18.78
aF18.78
aF18.78
aF18.78
aF18.78
aF18.78
aF18.78
aF18.78
aF18.78
aF18.78
aF18.78
aF18.78
aF18.78
aF18.78
aF18.78
aF18.78
aF18.78
aF18.78
aF18.78
aF18.78
aF18.78
aF18.78
aF18.78
aF18.78
aF18.71
aF18.71
aF18.71
aF18.71
aF18.71
aF18.71
aF18.71
aF18.71
aF18.71
aF18.71
aF18.71
aF18.71
aF18.71
aF18.71
aF18.71
aF18.71
aF18.71
aF18.71
aF18.71
aF18.71
aF18.71
aF18.71
aF18.71
aF18.71
aF18.71
aF18.71
aF18.71
aF18.71
aF18.71
aF18.71
aF18.71
aF18.71
aF18.71
aF18.71
aF18.71
aF18.71
aF18.71
aF18.71
aF18.71
aF18.71
aF18.71
aF18.71
aF18.71
aF18.71
aF18.71
aF18.71
aF18.71
aF18.71
aF18.71
aF18.71
aF18.71
aF18.71
aF18.71
aF18.71
aF18.71
aF18.71
aF18.71
aF18.71
aF18.71
aF18.71
aF18.71
aF18.71
aF18.71
aF18.71
aF18.71
aF18.71
aF18.71
aF18.71
aF18.71
aF18.71
aF18.71
aF18.71
aF18.71
aF18.71
aF18.71
aF18.71
aF18.71
aF18.71
aF18.71
aF18.71
aF18.71
aF18.71
aF18.71
aF18.71
aF18.71
aF18.71
aF18.71
aF18.71
aF18.71
aF18.71
aF18.71
aF18.71
aF18.71
aF18.71
aF18.71
aF18.71
aF18.71
aF18.71
aF18.71
aF18.71
aF18.71
aF18.71
aF18.71
aF18.71
aF18.71
aF18.71
aF18.71
aF18.71
aF18.71
aF18.71
aF18.71
aF18.71
aF18.71
aF18.71
aF18.71
aF18.71
aF18.71
aF18.71
aF18.71
aF18.71
aF18.71
aF18.71
aF18.71
aF18.71
aF18.71
aF18.71
aF18.71
aF18.69
aF18.69
aF18.69
aF18.69
aF18.69
aF18.69
aF18.69
aF18.69
aF18.69
aF18.69
aF18.69
aF18.69
aF18.69
aF18.69
aF18.69
aF18.69
aF18.69
aF18.69
aF18.69
aF18.69
aF18.69
aF18.69
aF18.69
aF18.69
aF18.69
aF18.69
aF18.69
aF18.69
aF18.69
aF18.69
aF18.69
aF18.69
aF18.69
aF18.69
aF18.69
aF18.69
aF18.69
aF18.69
aF18.69
aF18.69
aF18.69
aF18.69
aF18.69
aF18.69
aF18.69
aF18.69
aF18.69
aF18.69
aF18.69
aF18.69
aF18.69
aF18.69
aF18.69
aF18.69
aF18.69
aF18.69
aF18.69
aF18.69
aF18.69
aF18.69
aF18.69
aF18.69
aF18.69
aF18.69
aF18.69
aF18.69
aF18.69
aF18.69
aF18.69
aF18.69
aF18.69
aF18.69
aF18.69
aF18.69
aF18.69
aF18.69
aF18.69
aF18.69
aF18.69
aF18.69
aF18.69
aF18.69
aF18.69
aF18.69
aF18.69
aF18.69
aF18.69
aF18.69
aF18.69
aF18.69
aF18.69
aF18.69
aF18.69
aF18.69
aF18.69
aF18.69
aF18.69
aF18.69
aF18.69
aF18.69
aF18.69
aF18.69
aF18.69
aF18.69
aF18.69
aF18.69
aF18.69
aF18.69
aF18.69
aF18.69
aF18.69
aF18.69
aF18.69
aF18.69
aF18.69
aF18.69
aF18.69
aF18.69
aF18.69
aF18.69
aF18.69
aF18.69
aF18.69
aF18.69
aF18.69
aF18.69
aF18.69
aF18.69
aF18.69
aF18.69
aF18.69
aF18.69
aF18.69
aF18.69
aF18.69
aF18.69
aF18.69
aF18.69
aF18.69
aF18.69
aF18.69
aF18.69
aF18.69
aF18.69
aF18.69
aF18.69
aF18.69
aF18.69
aF18.69
aF18.69
aF18.69
aF18.69
aF18.69
aF18.69
aF18.69
aF18.69
aF18.69
aF18.69
aF18.69
aF18.69
aF18.69
aF18.69
aF18.69
aF18.69
aF18.69
aF18.69
aF18.69
aF18.69
aF18.69
aF18.69
aF18.69
aF18.69
aF18.69
aF18.69
aF18.69
aF18.69
aF18.69
aF18.69
aF18.69
aF18.69
aF18.69
aF18.69
aF18.69
aF18.69
aF18.69
aF18.69
aF18.69
aF18.69
aF18.69
aF18.69
aF18.69
aF18.69
aF18.69
aF18.69
aF18.69
aF18.69
aF18.69
aF18.69
aF18.69
aF18.69
aF18.69
aF18.69
aF18.69
aF18.69
aF18.69
aF18.69
aF18.69
aF18.69
aF18.69
aF18.69
aF18.69
aF18.69
aF18.69
aF18.69
aF18.69
aF18.69
aF18.69
aF18.69
aF18.69
aF18.69
aF18.69
aF18.69
aF18.69
aF18.69
aF18.69
aF18.69
aF18.69
aF18.69
aF18.69
aF18.69
aF18.69
aF18.69
aF18.69
aF18.69
aF18.69
aF18.69
aF18.69
aF18.69
aF18.69
aF18.69
aF18.69
aF18.69
aF18.69
aF18.69
aF18.69
aF18.69
aF18.69
aF18.69
aF18.69
aF18.69
aF18.69
aF18.69
aF18.69
aF18.69
aF18.69
aF18.69
aF18.69
aF18.69
aF18.69
aF18.69
aF18.69
aF18.69
aF18.69
aF18.69
aF18.69
aF18.69
aF18.69
aF18.69
aF18.69
aF18.69
aF18.69
aF18.69
aF18.69
aF18.69
aF18.69
aF18.69
aF18.69
aF18.69
aF18.69
aF18.69
aF18.69
aF18.69
aF18.69
aF18.69
aF18.69
aF18.69
aF18.69
aF18.69
aF18.69
aF18.69
aF18.69
aF18.69
aF18.69
aF18.69
aF18.69
aF18.69
aF18.69
aF18.69
aF18.69
aF18.69
aF18.69
aF18.69
aF18.69
aF18.69
aF18.69
aF18.69
aF18.69
aF18.69
aF18.69
aF18.69
aF18.69
aF18.69
aF18.69
aF18.69
aF18.69
aF18.69
aF18.69
aF18.69
aF18.69
aF18.69
aF18.69
aF18.69
aF18.69
aF18.69
aF18.69
aF18.69
aF18.69
aF18.69
aF18.69
aF18.69
aF18.69
aF18.69
aF18.69
aF18.69
aF18.69
aF18.69
aF18.69
aF18.69
aF18.69
aF18.69
aF18.69
aF18.69
aF18.69
aF18.69
aF18.69
aF18.69
aF18.69
aF18.69
aF18.69
aF18.69
aF18.69
aF18.69
aF18.69
aF18.69
aF18.69
aF18.69
aF18.69
aF18.69
aF18.69
aF18.69
aF18.69
aF18.69
aF18.69
aF18.69
aF18.69
aF18.69
aF18.69
aF18.69
aF18.69
aF18.69
aF18.69
aF18.69
aF18.69
aF18.69
aF18.69
aF18.69
aF18.69
aF18.69
aF18.69
aF18.69
aF18.69
aF18.69
aF18.69
aF18.69
aF18.69
aF18.69
aF18.69
aF18.69
aF18.69
aF18.69
aF18.69
aF18.69
aF18.69
aF18.69
aF18.69
aF18.69
aF18.69
aF18.69
aF18.69
aF18.69
aF18.69
aF18.69
aF18.69
aF18.69
aF18.69
aF18.69
aF18.69
aF18.69
aF18.69
aF18.69
aF18.69
aF18.69
aF18.69
aF18.69
aF18.69
aF18.69
aF18.69
aF18.69
aF18.69
aF18.69
aF18.69
aF18.69
aF18.69
aF18.69
aF18.69
aF18.69
aF18.69
aF18.69
aF18.69
aF18.69
aF18.69
aF18.69
aF18.69
aF18.69
aF18.69
aF18.69
aF18.69
aF18.69
aF18.69
aF18.69
aF18.69
aF18.69
aF18.69
aF18.69
aF18.69
aF18.69
aF18.69
aF18.69
aF18.69
aF18.69
aF18.69
aF18.69
aF18.69
aF18.69
aF18.69
aF18.69
aF18.69
aF18.69
aF18.69
aF18.69
aF18.69
aF18.69
aF18.69
aF18.69
aF18.69
aF18.69
aF18.69
aF18.69
aF18.69
aF18.69
aF18.69
aF18.69
aF18.69
aF18.69
aF18.69
aF18.69
aF18.69
aF18.69
aF18.69
aF18.69
aF18.69
aF18.69
aF18.69
aF18.69
aF18.69
aF18.69
aF18.69
aF18.69
aF18.69
aF18.69
aF18.69
aF18.69
aF18.69
aF18.69
aF18.69
aF18.69
aF18.69
aF18.69
aF18.69
aF18.69
aF18.69
aF18.69
aF18.69
aF18.69
aF18.69
aF18.69
aF18.69
aF18.69
aF18.69
aF18.69
aF18.69
aF18.69
aF18.69
aF18.69
aF18.69
aF18.69
aF18.69
aF18.69
aF18.69
aF18.69
aF18.69
aF18.69
aF18.69
aF18.69
aF18.69
aF18.69
aF18.69
aF18.69
aF18.69
aF18.69
aF18.69
aF18.69
aF18.69
aF18.69
aF18.69
aF18.69
aF18.69
aF18.69
aF18.69
aF18.69
aF18.69
aF18.69
aF18.69
aF18.69
aF18.69
aF18.69
aF18.69
aF18.69
aF18.69
aF18.69
aF18.69
aF18.69
aF18.69
aF18.69
aF18.69
aF18.69
aF18.69
aF18.69
aF18.69
aF18.69
aF18.69
aF18.69
aF18.69
aF18.69
aF18.69
aF18.69
aF18.69
aF18.69
aF18.69
aF18.69
aF18.69
aF18.69
aF18.69
aF18.69
aF18.69
aF18.69
aF18.69
aF18.69
aF18.69
aF18.69
aF18.69
aF18.69
aF18.69
aF18.69
aF18.69
aF18.69
aF18.69
aF18.69
aF18.69
aF18.69
aF18.69
aF18.69
aF18.69
aF18.69
aF18.69
aF18.69
aF18.69
aF18.69
aF18.69
aF18.69
aF18.69
aF18.69
aF18.69
aF18.69
aF18.69
aF18.69
aF18.69
aF18.69
aF18.69
aF18.69
aF18.69
aF18.69
aF18.69
aF18.69
aF18.69
aF18.69
aF18.69
aF18.69
aF18.69
aF18.69
aF18.69
aF18.69
aF18.69
aF18.69
aF18.69
aF18.69
aF18.69
aF18.69
aF18.69
aF18.69
aF18.69
aF18.69
aF18.69
aF18.69
aF18.69
aF18.69
aF18.69
aF18.69
aF18.69
aF18.69
aF18.69
aF18.69
aF18.69
aF18.69
aF18.69
aF18.69
aF18.69
aF18.69
aF18.69
aF18.69
aF18.69
aF18.69
aF18.69
aF18.69
aF18.69
aF18.69
aF18.69
aF18.69
aF18.69
aF18.69
aF18.69
aF18.69
aF18.69
aF18.69
aF18.69
aF18.69
aF18.69
aF18.69
aF18.69
aF18.69
aF18.69
aF18.69
aF18.69
aF18.69
aF18.69
aF18.69
aF18.69
aF18.69
aF18.69
aF18.69
aF18.69
aF18.69
aF18.69
aF18.69
aF18.69
aF18.67
aF18.67
aF18.67
aF18.67
aF18.67
aF18.67
aF18.67
aF18.67
aF18.67
aF18.67
aF18.67
aF18.67
aF18.67
aF18.67
aF18.67
aF18.67
aF18.67
aF18.67
aF18.67
aF18.67
aF18.67
aF18.67
aF18.67
aF18.67
aF18.67
aF18.67
aF18.67
aF18.67
aF18.67
aF18.67
aF18.67
aF18.67
aF18.67
aF18.67
aF18.67
aF18.67
aF18.67
aF18.67
aF18.67
aF18.67
aF18.67
aF18.67
aF18.67
aF18.67
aF18.67
aF18.67
aF18.67
aF18.67
aF18.67
aF18.67
aF18.67
aF18.67
aF18.67
aF18.67
aF18.67
aF18.67
aF18.67
aF18.67
aF18.67
aF18.67
aF18.67
aF18.67
aF18.67
aF18.67
aF18.67
aF18.67
aF18.67
aF18.67
aF18.67
aF18.67
aF18.67
aF18.67
aF18.67
aF18.67
aF18.67
aF18.67
aF18.67
aF18.67
aF18.67
aF18.67
aF18.67
aF18.67
aF18.67
aF18.67
aF18.67
aF18.67
aF18.67
aF18.67
aF18.67
aF18.67
aF18.67
aF18.67
aF18.67
aF18.67
aF18.67
aF18.67
aF18.67
aF18.67
aF18.67
aF18.67
aF18.67
aF18.67
aF18.67
aF18.67
aF18.67
aF18.67
aF18.67
aF18.67
aF18.67
aF18.67
aF18.67
aF18.67
aF18.67
aF18.67
aF18.67
aF18.67
aF18.67
aF18.67
aF18.67
aF18.67
aF18.67
aF18.67
aF18.67
aF18.67
aF18.67
aF18.67
aF18.67
aF18.67
aF18.67
aF18.67
aF18.67
aF18.67
aF18.67
aF18.67
aF18.67
aF18.67
aF18.67
aF18.67
aF18.67
aF18.67
aF18.67
aF18.67
aF18.67
aF18.67
aF18.67
aF18.67
aF18.67
aF18.67
aF18.67
aF18.67
aF18.67
aF18.67
aF18.67
aF18.67
aF18.67
aF18.67
aF18.67
aF18.67
aF18.67
aF18.67
aF18.67
aF18.67
a.