(lp1
F23.45
aF23.1
aF22.88
aF22.48
aF22.43
aF22.43
aF22.37
aF22.26
aF22.21
aF22.11
aF21.85
aF21.85
aF21.85
aF21.66
aF21.48
aF21.36
aF21.31
aF21.25
aF21.25
aF21.13
aF21.12
aF21.12
aF21.07
aF21.07
aF21.07
aF21.07
aF21.07
aF21.07
aF21.07
aF21.04
aF21.01
aF21.01
aF21.01
aF20.99
aF20.97
aF20.97
aF20.97
aF20.95
aF20.94
aF20.86
aF20.86
aF20.85
aF20.85
aF20.85
aF20.85
aF20.85
aF20.84
aF20.74
aF20.74
aF20.65
aF20.65
aF20.31
aF20.24
aF20.24
aF20.24
aF20.24
aF20.24
aF20.24
aF20.24
aF20.21
aF20.21
aF20.19
aF20.18
aF20.03
aF20.03
aF20.01
aF20.01
aF20.01
aF20.01
aF20.01
aF19.81
aF19.81
aF19.81
aF19.71
aF19.71
aF19.71
aF19.71
aF19.71
aF19.71
aF19.71
aF19.71
aF19.71
aF19.71
aF19.71
aF19.68
aF19.68
aF19.68
aF19.68
aF19.68
aF19.68
aF19.68
aF19.68
aF19.67
aF19.67
aF19.67
aF19.67
aF19.67
aF19.63
aF19.63
aF19.63
aF19.63
aF19.63
aF19.63
aF19.63
aF19.63
aF19.56
aF19.53
aF19.53
aF19.53
aF19.53
aF19.53
aF19.53
aF19.53
aF19.53
aF19.53
aF19.53
aF19.53
aF19.53
aF19.53
aF19.53
aF19.53
aF19.53
aF19.53
aF19.5
aF19.5
aF19.5
aF19.5
aF19.5
aF19.5
aF19.5
aF19.5
aF19.5
aF19.5
aF19.5
aF19.5
aF19.5
aF19.5
aF19.5
aF19.5
aF19.5
aF19.5
aF19.5
aF19.5
aF19.5
aF19.5
aF19.5
aF19.5
aF19.5
aF19.5
aF19.5
aF19.5
aF19.5
aF19.5
aF19.5
aF19.5
aF19.5
aF19.5
aF19.48
aF19.48
aF19.48
aF19.48
aF19.48
aF19.48
aF19.48
aF19.48
aF19.48
aF19.48
aF19.48
aF19.47
aF19.47
aF19.47
aF19.47
aF19.47
aF19.47
aF19.47
aF19.47
aF19.44
aF19.44
aF19.44
aF19.44
aF19.44
aF19.44
aF19.44
aF19.44
aF19.44
aF19.41
aF19.39
aF19.39
aF19.39
aF19.39
aF19.31
aF19.31
aF19.31
aF19.31
aF19.31
aF19.31
aF19.31
aF19.31
aF19.31
aF19.31
aF19.31
aF19.28
aF19.28
aF19.28
aF19.23
aF19.21
aF19.21
aF19.21
aF19.21
aF19.21
aF19.21
aF19.21
aF19.21
aF19.21
aF19.21
aF19.21
aF19.21
aF19.21
aF19.21
aF19.21
aF19.21
aF19.13
aF19.13
aF19.13
aF19.13
aF19.13
aF19.13
aF19.13
aF19.13
aF19.13
aF19.13
aF19.13
aF19.13
aF19.12
aF19.12
aF19.12
aF19.12
aF19.12
aF19.12
aF19.12
aF19.12
aF19.12
aF19.12
aF19.12
aF19.12
aF19.12
aF19.12
aF19.12
aF19.12
aF19.12
aF19.12
a.