(lp1
F21.65
aF21.58
aF21.58
aF21.43
aF21.31
aF21.31
aF21.22
aF21.19
aF21.04
aF21.04
aF20.81
aF20.81
aF20.77
aF20.74
aF20.74
aF20.65
aF20.55
aF20.55
aF20.55
aF20.55
aF20.55
aF20.39
aF20.31
aF20.28
aF20.22
aF20.22
aF20.18
aF20.18
aF20.12
aF19.98
aF19.98
aF19.98
aF19.98
aF19.98
aF19.98
aF19.96
aF19.96
aF19.96
aF19.96
aF19.96
aF19.96
aF19.96
aF19.96
aF19.93
aF19.89
aF19.89
aF19.83
aF19.83
aF19.83
aF19.79
aF19.79
aF19.76
aF19.76
aF19.76
aF19.76
aF19.76
aF19.68
aF19.68
aF19.68
aF19.68
aF19.68
aF19.68
aF19.68
aF19.68
aF19.66
aF19.66
aF19.66
aF19.66
aF19.66
aF19.66
aF19.66
aF19.64
aF19.63
aF19.63
aF19.63
aF19.56
aF19.56
aF19.56
aF19.56
aF19.56
aF19.56
aF19.56
aF19.56
aF19.56
aF19.56
aF19.56
aF19.52
aF19.44
aF19.44
aF19.44
aF19.44
aF19.43
aF19.41
aF19.41
aF19.41
aF19.41
aF19.39
aF19.37
aF19.35
aF19.35
aF19.32
a.